target datalayout = "e-m:e-p270:32:32-p271:32:32-p272:64:64-i64:64-i128:128-f80:128-n8:16:32:64-S128"
target triple = "x86_64-pc-linux-gnu"

%struct.DdManager = type { %struct.DdNode, ptr, ptr, ptr, ptr, ptr, ptr, ptr, i32, i32, double, double, double, i32, i32, i32, i32, i32, i32, ptr, ptr, %struct.DdSubtable, i32, i32, i32, i32, i32, i32, i32, double, i32, i32, i32, ptr, i64, double, i32, ptr, ptr, ptr, ptr, ptr, ptr, ptr, i32, ptr, ptr, ptr, ptr, ptr, ptr, i32, i32, i32, double, i32, i32, i32, i32, double, double, i32, i32, i32, i32, i32, i32, i32, i32, i32, ptr, ptr, i32, i32, i32, i32, i32, i32, ptr, ptr, ptr, ptr, ptr, ptr, ptr, ptr, i32, i64, i64, i64, i32, i64, i64, double, double, double, double, double, double, i32, ptr, ptr, i64 }
%struct.DdNode = type { i32, i32, ptr, %union.anon, i64 }
%union.anon = type { %struct.DdChildren }
%struct.DdChildren = type { ptr, ptr }
%struct.DdSubtable = type { ptr, i32, i32, i32, i32, i32, i32, i32, i32, i32, i32, i32 }
%struct.Bbr_ImageTree_t_ = type { ptr, ptr, ptr, i32, i32, i32, i32, i32 }
%struct.Bbr_ImageNode_t_ = type { ptr, ptr, ptr, ptr, ptr, ptr }

; Function Attrs: nounwind uwtable
define internal i32 @Bbr_bddImageCompute_rec(ptr noundef %0, ptr noundef %1) #0 {
  %3 = alloca i32, align 4
  %4 = alloca ptr, align 8
  %5 = alloca ptr, align 8
  %6 = alloca ptr, align 8
  %7 = alloca ptr, align 8
  %8 = alloca i32, align 4
  %9 = alloca i32, align 4
  store ptr %0, ptr %4, align 8, !tbaa !44
  store ptr %1, ptr %5, align 8, !tbaa !35
  call void @llvm.lifetime.start.p0(i64 8, ptr %6) #6
  %10 = load ptr, ptr %5, align 8, !tbaa !35
  %11 = getelementptr inbounds nuw %struct.Bbr_ImageNode_t_, ptr %10, i32 0, i32 0
  %12 = load ptr, ptr %11, align 8, !tbaa !77
  store ptr %12, ptr %6, align 8, !tbaa !3
  call void @llvm.lifetime.start.p0(i64 8, ptr %7) #6
  call void @llvm.lifetime.start.p0(i64 4, ptr %8) #6
  %13 = load ptr, ptr %5, align 8, !tbaa !35
  %14 = getelementptr inbounds nuw %struct.Bbr_ImageNode_t_, ptr %13, i32 0, i32 3
  %15 = load ptr, ptr %14, align 8, !tbaa !90
  %16 = icmp eq ptr %15, null
  br i1 %16, label %17, label %39

17:                                               ; preds = %2
  %18 = load ptr, ptr %5, align 8, !tbaa !35
  %19 = getelementptr inbounds nuw %struct.Bbr_ImageNode_t_, ptr %18, i32 0, i32 1
  %20 = load ptr, ptr %19, align 8, !tbaa !81
  %21 = icmp ne ptr %20, null
  br i1 %21, label %22, label %38

22:                                               ; preds = %17
  %23 = load ptr, ptr %6, align 8, !tbaa !3
  %24 = load ptr, ptr %5, align 8, !tbaa !35
  %25 = getelementptr inbounds nuw %struct.Bbr_ImageNode_t_, ptr %24, i32 0, i32 2
  %26 = load ptr, ptr %25, align 8, !tbaa !83
  store ptr %26, ptr %7, align 8, !tbaa !8
  %27 = load ptr, ptr %5, align 8, !tbaa !35
  %28 = getelementptr inbounds nuw %struct.Bbr_ImageNode_t_, ptr %27, i32 0, i32 1
  %29 = load ptr, ptr %28, align 8, !tbaa !81
  %30 = call ptr @Cudd_bddExistAbstract(ptr noundef %23, ptr noundef %26, ptr noundef %29)
  %31 = load ptr, ptr %5, align 8, !tbaa !35
  %32 = getelementptr inbounds nuw %struct.Bbr_ImageNode_t_, ptr %31, i32 0, i32 2
  store ptr %30, ptr %32, align 8, !tbaa !83
  %33 = load ptr, ptr %5, align 8, !tbaa !35
  %34 = getelementptr inbounds nuw %struct.Bbr_ImageNode_t_, ptr %33, i32 0, i32 2
  %35 = load ptr, ptr %34, align 8, !tbaa !83
  call void @Cudd_Ref(ptr noundef %35)
  %36 = load ptr, ptr %6, align 8, !tbaa !3
  %37 = load ptr, ptr %7, align 8, !tbaa !8
  call void @Cudd_RecursiveDeref(ptr noundef %36, ptr noundef %37)
  br label %38

38:                                               ; preds = %22, %17
  store i32 1, ptr %3, align 4
  store i32 1, ptr %9, align 4
  br label %154

39:                                               ; preds = %2
  %40 = load ptr, ptr %5, align 8, !tbaa !35
  %41 = getelementptr inbounds nuw %struct.Bbr_ImageNode_t_, ptr %40, i32 0, i32 3
  %42 = load ptr, ptr %41, align 8, !tbaa !90
  %43 = icmp ne ptr %42, null
  br i1 %43, label %44, label %53

44:                                               ; preds = %39
  %45 = load ptr, ptr %4, align 8, !tbaa !44
  %46 = load ptr, ptr %5, align 8, !tbaa !35
  %47 = getelementptr inbounds nuw %struct.Bbr_ImageNode_t_, ptr %46, i32 0, i32 3
  %48 = load ptr, ptr %47, align 8, !tbaa !90
  %49 = call i32 @Bbr_bddImageCompute_rec(ptr noundef %45, ptr noundef %48)
  %50 = icmp ne i32 %49, 0
  br i1 %50, label %52, label %51

51:                                               ; preds = %44
  store i32 0, ptr %3, align 4
  store i32 1, ptr %9, align 4
  br label %154

52:                                               ; preds = %44
  br label %53

53:                                               ; preds = %52, %39
  %54 = load ptr, ptr %5, align 8, !tbaa !35
  %55 = getelementptr inbounds nuw %struct.Bbr_ImageNode_t_, ptr %54, i32 0, i32 4
  %56 = load ptr, ptr %55, align 8, !tbaa !91
  %57 = icmp ne ptr %56, null
  br i1 %57, label %58, label %67

58:                                               ; preds = %53
  %59 = load ptr, ptr %4, align 8, !tbaa !44
  %60 = load ptr, ptr %5, align 8, !tbaa !35
  %61 = getelementptr inbounds nuw %struct.Bbr_ImageNode_t_, ptr %60, i32 0, i32 4
  %62 = load ptr, ptr %61, align 8, !tbaa !91
  %63 = call i32 @Bbr_bddImageCompute_rec(ptr noundef %59, ptr noundef %62)
  %64 = icmp ne i32 %63, 0
  br i1 %64, label %66, label %65

65:                                               ; preds = %58
  store i32 0, ptr %3, align 4
  store i32 1, ptr %9, align 4
  br label %154

66:                                               ; preds = %58
  br label %67

67:                                               ; preds = %66, %53
  %68 = load ptr, ptr %5, align 8, !tbaa !35
  %69 = getelementptr inbounds nuw %struct.Bbr_ImageNode_t_, ptr %68, i32 0, i32 2
  %70 = load ptr, ptr %69, align 8, !tbaa !83
  %71 = icmp ne ptr %70, null
  br i1 %71, label %72, label %77

72:                                               ; preds = %67
  %73 = load ptr, ptr %6, align 8, !tbaa !3
  %74 = load ptr, ptr %5, align 8, !tbaa !35
  %75 = getelementptr inbounds nuw %struct.Bbr_ImageNode_t_, ptr %74, i32 0, i32 2
  %76 = load ptr, ptr %75, align 8, !tbaa !83
  call void @Cudd_RecursiveDeref(ptr noundef %73, ptr noundef %76)
  br label %77

77:                                               ; preds = %72, %67
  %78 = load ptr, ptr %5, align 8, !tbaa !35
  %79 = getelementptr inbounds nuw %struct.Bbr_ImageNode_t_, ptr %78, i32 0, i32 2
  store ptr null, ptr %79, align 8, !tbaa !83
  %80 = load ptr, ptr %5, align 8, !tbaa !35
  %81 = getelementptr inbounds nuw %struct.Bbr_ImageNode_t_, ptr %80, i32 0, i32 1
  %82 = load ptr, ptr %81, align 8, !tbaa !81
  %83 = icmp ne ptr %82, null
  br i1 %83, label %84, label %102

84:                                               ; preds = %77
  %85 = load ptr, ptr %6, align 8, !tbaa !3
  %86 = load ptr, ptr %5, align 8, !tbaa !35
  %87 = getelementptr inbounds nuw %struct.Bbr_ImageNode_t_, ptr %86, i32 0, i32 3
  %88 = load ptr, ptr %87, align 8, !tbaa !90
  %89 = getelementptr inbounds nuw %struct.Bbr_ImageNode_t_, ptr %88, i32 0, i32 2
  %90 = load ptr, ptr %89, align 8, !tbaa !83
  %91 = load ptr, ptr %5, align 8, !tbaa !35
  %92 = getelementptr inbounds nuw %struct.Bbr_ImageNode_t_, ptr %91, i32 0, i32 4
  %93 = load ptr, ptr %92, align 8, !tbaa !91
  %94 = getelementptr inbounds nuw %struct.Bbr_ImageNode_t_, ptr %93, i32 0, i32 2
  %95 = load ptr, ptr %94, align 8, !tbaa !83
  %96 = load ptr, ptr %5, align 8, !tbaa !35
  %97 = getelementptr inbounds nuw %struct.Bbr_ImageNode_t_, ptr %96, i32 0, i32 1
  %98 = load ptr, ptr %97, align 8, !tbaa !81
  %99 = call ptr @Cudd_bddAndAbstract(ptr noundef %85, ptr noundef %90, ptr noundef %95, ptr noundef %98)
  %100 = load ptr, ptr %5, align 8, !tbaa !35
  %101 = getelementptr inbounds nuw %struct.Bbr_ImageNode_t_, ptr %100, i32 0, i32 2
  store ptr %99, ptr %101, align 8, !tbaa !83
  br label %117

102:                                              ; preds = %77
  %103 = load ptr, ptr %6, align 8, !tbaa !3
  %104 = load ptr, ptr %5, align 8, !tbaa !35
  %105 = getelementptr inbounds nuw %struct.Bbr_ImageNode_t_, ptr %104, i32 0, i32 3
  %106 = load ptr, ptr %105, align 8, !tbaa !90
  %107 = getelementptr inbounds nuw %struct.Bbr_ImageNode_t_, ptr %106, i32 0, i32 2
  %108 = load ptr, ptr %107, align 8, !tbaa !83
  %109 = load ptr, ptr %5, align 8, !tbaa !35
  %110 = getelementptr inbounds nuw %struct.Bbr_ImageNode_t_, ptr %109, i32 0, i32 4
  %111 = load ptr, ptr %110, align 8, !tbaa !91
  %112 = getelementptr inbounds nuw %struct.Bbr_ImageNode_t_, ptr %111, i32 0, i32 2
  %113 = load ptr, ptr %112, align 8, !tbaa !83
  %114 = call ptr @Cudd_bddAnd(ptr noundef %103, ptr noundef %108, ptr noundef %113)
  %115 = load ptr, ptr %5, align 8, !tbaa !35
  %116 = getelementptr inbounds nuw %struct.Bbr_ImageNode_t_, ptr %115, i32 0, i32 2
  store ptr %114, ptr %116, align 8, !tbaa !83
  br label %117

117:                                              ; preds = %102, %84
  %118 = load ptr, ptr %5, align 8, !tbaa !35
  %119 = getelementptr inbounds nuw %struct.Bbr_ImageNode_t_, ptr %118, i32 0, i32 2
  %120 = load ptr, ptr %119, align 8, !tbaa !83
  call void @Cudd_Ref(ptr noundef %120)
  %121 = load ptr, ptr %4, align 8, !tbaa !44
  %122 = getelementptr inbounds nuw %struct.Bbr_ImageTree_t_, ptr %121, i32 0, i32 3
  %123 = load i32, ptr %122, align 8, !tbaa !49
  %124 = icmp ne i32 %123, 0
  br i1 %124, label %125, label %140

125:                                              ; preds = %117
  %126 = load ptr, ptr %5, align 8, !tbaa !35
  %127 = getelementptr inbounds nuw %struct.Bbr_ImageNode_t_, ptr %126, i32 0, i32 2
  %128 = load ptr, ptr %127, align 8, !tbaa !83
  %129 = call i32 @Cudd_DagSize(ptr noundef %128)
  store i32 %129, ptr %8, align 4, !tbaa !10
  %130 = load ptr, ptr %4, align 8, !tbaa !44
  %131 = getelementptr inbounds nuw %struct.Bbr_ImageTree_t_, ptr %130, i32 0, i32 4
  %132 = load i32, ptr %131, align 4, !tbaa !94
  %133 = load i32, ptr %8, align 4, !tbaa !10
  %134 = icmp slt i32 %132, %133
  br i1 %134, label %135, label %139

135:                                              ; preds = %125
  %136 = load i32, ptr %8, align 4, !tbaa !10
  %137 = load ptr, ptr %4, align 8, !tbaa !44
  %138 = getelementptr inbounds nuw %struct.Bbr_ImageTree_t_, ptr %137, i32 0, i32 4
  store i32 %136, ptr %138, align 4, !tbaa !94
  br label %139

139:                                              ; preds = %135, %125
  br label %140

140:                                              ; preds = %139, %117
  %141 = load ptr, ptr %6, align 8, !tbaa !3
  %142 = getelementptr inbounds nuw %struct.DdManager, ptr %141, i32 0, i32 23
  %143 = load i32, ptr %142, align 4, !tbaa !88
  %144 = load ptr, ptr %6, align 8, !tbaa !3
  %145 = getelementptr inbounds nuw %struct.DdManager, ptr %144, i32 0, i32 25
  %146 = load i32, ptr %145, align 4, !tbaa !89
  %147 = sub i32 %143, %146
  %148 = load ptr, ptr %4, align 8, !tbaa !44
  %149 = getelementptr inbounds nuw %struct.Bbr_ImageTree_t_, ptr %148, i32 0, i32 7
  %150 = load i32, ptr %149, align 8, !tbaa !48
  %151 = icmp ugt i32 %147, %150
  br i1 %151, label %152, label %153

152:                                              ; preds = %140
  store i32 0, ptr %3, align 4
  store i32 1, ptr %9, align 4
  br label %154

153:                                              ; preds = %140
  store i32 1, ptr %3, align 4
  store i32 1, ptr %9, align 4
  br label %154

154:                                              ; preds = %153, %152, %65, %51, %38
  call void @llvm.lifetime.end.p0(i64 4, ptr %8) #6
  call void @llvm.lifetime.end.p0(i64 8, ptr %7) #6
  call void @llvm.lifetime.end.p0(i64 8, ptr %6) #6
  %155 = load i32, ptr %3, align 4
  ret i32 %155
}