; Function Attrs: nounwind uwtable
define internal fastcc range(i32 0, 2) i32 @Bbr_bddImageCompute_rec(ptr noundef %0, ptr noundef captures(none) %1) unnamed_addr #0 {
  %3 = load ptr, ptr %1, align 8, !tbaa !53
  %4 = getelementptr inbounds nuw i8, ptr %1, i64 24
  %5 = load ptr, ptr %4, align 8, !tbaa !82
  %6 = icmp eq ptr %5, null
  br i1 %6, label %7, label %14

7:                                                ; preds = %2
  %8 = getelementptr inbounds nuw i8, ptr %1, i64 8
  %9 = load ptr, ptr %8, align 8, !tbaa !58
  %.not51 = icmp eq ptr %9, null
  br i1 %.not51, label %57, label %10

10:                                               ; preds = %7
  %11 = getelementptr inbounds nuw i8, ptr %1, i64 16
  %12 = load ptr, ptr %11, align 8, !tbaa !60
  %13 = tail call ptr @Cudd_bddExistAbstract(ptr noundef %3, ptr noundef %12, ptr noundef nonnull %9) #11
  store ptr %13, ptr %11, align 8, !tbaa !60
  tail call void @Cudd_Ref(ptr noundef %13) #11
  tail call void @Cudd_RecursiveDeref(ptr noundef %3, ptr noundef %12) #11
  br label %57

14:                                               ; preds = %2
  %15 = tail call fastcc i32 @Bbr_bddImageCompute_rec(ptr noundef %0, ptr noundef nonnull %5)
  %.not = icmp eq i32 %15, 0
  br i1 %.not, label %57, label %16

16:                                               ; preds = %14
  %17 = getelementptr inbounds nuw i8, ptr %1, i64 32
  %18 = load ptr, ptr %17, align 8, !tbaa !83
  %.not46 = icmp eq ptr %18, null
  br i1 %.not46, label %21, label %19

19:                                               ; preds = %16
  %20 = tail call fastcc i32 @Bbr_bddImageCompute_rec(ptr noundef %0, ptr noundef nonnull %18)
  %.not47 = icmp eq i32 %20, 0
  br i1 %.not47, label %57, label %21

21:                                               ; preds = %19, %16
  %22 = getelementptr inbounds nuw i8, ptr %1, i64 16
  %23 = load ptr, ptr %22, align 8, !tbaa !60
  %.not48 = icmp eq ptr %23, null
  br i1 %.not48, label %25, label %24

24:                                               ; preds = %21
  tail call void @Cudd_RecursiveDeref(ptr noundef %3, ptr noundef nonnull %23) #11
  br label %25

25:                                               ; preds = %24, %21
  store ptr null, ptr %22, align 8, !tbaa !60
  %26 = getelementptr inbounds nuw i8, ptr %1, i64 8
  %27 = load ptr, ptr %26, align 8, !tbaa !58
  %.not49 = icmp eq ptr %27, null
  %28 = load ptr, ptr %4, align 8, !tbaa !82
  %29 = getelementptr inbounds nuw i8, ptr %28, i64 16
  %30 = load ptr, ptr %29, align 8, !tbaa !60
  %31 = load ptr, ptr %17, align 8, !tbaa !83
  %32 = getelementptr inbounds nuw i8, ptr %31, i64 16
  %33 = load ptr, ptr %32, align 8, !tbaa !60
  br i1 %.not49, label %36, label %34

34:                                               ; preds = %25
  %35 = tail call ptr @Cudd_bddAndAbstract(ptr noundef %3, ptr noundef %30, ptr noundef %33, ptr noundef nonnull %27) #11
  br label %38

36:                                               ; preds = %25
  %37 = tail call ptr @Cudd_bddAnd(ptr noundef %3, ptr noundef %30, ptr noundef %33) #11
  br label %38

38:                                               ; preds = %36, %34
  %storemerge = phi ptr [ %37, %36 ], [ %35, %34 ]
  store ptr %storemerge, ptr %22, align 8, !tbaa !60
  tail call void @Cudd_Ref(ptr noundef %storemerge) #11
  %39 = getelementptr inbounds nuw i8, ptr %0, i64 24
  %40 = load i32, ptr %39, align 8, !tbaa !77
  %.not50 = icmp eq i32 %40, 0
  br i1 %.not50, label %48, label %41

41:                                               ; preds = %38
  %42 = load ptr, ptr %22, align 8, !tbaa !60
  %43 = tail call i32 @Cudd_DagSize(ptr noundef %42) #11
  %44 = getelementptr inbounds nuw i8, ptr %0, i64 28
  %45 = load i32, ptr %44, align 4, !tbaa !85
  %46 = icmp slt i32 %45, %43
  br i1 %46, label %47, label %48

47:                                               ; preds = %41
  store i32 %43, ptr %44, align 4, !tbaa !85
  br label %48

48:                                               ; preds = %41, %47, %38
  %49 = getelementptr inbounds nuw i8, ptr %3, i64 228
  %50 = load i32, ptr %49, align 4, !tbaa !70
  %51 = getelementptr inbounds nuw i8, ptr %3, i64 236
  %52 = load i32, ptr %51, align 4, !tbaa !71
  %53 = sub i32 %50, %52
  %54 = getelementptr inbounds nuw i8, ptr %0, i64 40
  %55 = load i32, ptr %54, align 8, !tbaa !76
  %56 = icmp ule i32 %53, %55
  %. = zext i1 %56 to i32
  br label %57

57:                                               ; preds = %48, %19, %14, %7, %10
  %.0 = phi i32 [ 1, %10 ], [ 1, %7 ], [ 0, %14 ], [ 0, %19 ], [ %., %48 ]
  ret i32 %.0
}